target datalayout = "e-m:e-p270:32:32-p271:32:32-p272:64:64-i64:64-i128:128-f80:128-n8:16:32:64-S128"
target triple = "x86_64-pc-linux-gnu"

%struct.dt_import_metadata_t = type { ptr, ptr, ptr, ptr, ptr }

@.str.12 = private unnamed_addr constant [25 x i8] c"ui_last/import_last_tags\00", align 1

; Function Attrs: nounwind uwtable
define internal void @_import_tags_changed(ptr noundef %0, ptr noundef %1) #0 {
  %3 = alloca ptr, align 8
  %4 = alloca ptr, align 8
  %5 = alloca ptr, align 8
  store ptr %0, ptr %3, align 8, !tbaa !11
  store ptr %1, ptr %4, align 8, !tbaa !6
  call void @llvm.lifetime.start.p0(i64 8, ptr %5) #7
  %6 = load ptr, ptr %4, align 8, !tbaa !6
  %7 = getelementptr inbounds nuw %struct.dt_import_metadata_t, ptr %6, i32 0, i32 2
  %8 = load ptr, ptr %7, align 8, !tbaa !13
  %9 = call i64 @gtk_grid_get_type() #8
  %10 = call ptr @g_type_check_instance_cast(ptr noundef %8, i64 noundef %9)
  %11 = call ptr @gtk_grid_get_child_at(ptr noundef %10, i32 noundef 1, i32 noundef 10)
  store ptr %11, ptr %5, align 8, !tbaa !11
  %12 = load ptr, ptr %5, align 8, !tbaa !11
  %13 = call i64 @gtk_combo_box_get_type() #8
  %14 = call ptr @g_type_check_instance_cast(ptr noundef %12, i64 noundef %13)
  call void @gtk_combo_box_set_active(ptr noundef %14, i32 noundef -1)
  %15 = load ptr, ptr %4, align 8, !tbaa !6
  %16 = getelementptr inbounds nuw %struct.dt_import_metadata_t, ptr %15, i32 0, i32 2
  %17 = load ptr, ptr %16, align 8, !tbaa !13
  %18 = call i64 @gtk_grid_get_type() #8
  %19 = call ptr @g_type_check_instance_cast(ptr noundef %17, i64 noundef %18)
  %20 = call ptr @gtk_grid_get_child_at(ptr noundef %19, i32 noundef 1, i32 noundef 11)
  store ptr %20, ptr %5, align 8, !tbaa !11
  %21 = load ptr, ptr %5, align 8, !tbaa !11
  %22 = call i64 @gtk_entry_get_type() #8
  %23 = call ptr @g_type_check_instance_cast(ptr noundef %21, i64 noundef %22)
  %24 = call ptr @gtk_entry_get_text(ptr noundef %23)
  call void @dt_conf_set_string(ptr noundef @.str.12, ptr noundef %24)
  call void @llvm.lifetime.end.p0(i64 8, ptr %5) #7
  ret void
}