; Function Attrs: nounwind uwtable
define internal void @_import_tags_changed(ptr readnone captures(none) %0, ptr noundef readonly captures(none) %1) #0 {
  %3 = getelementptr inbounds nuw i8, ptr %1, i64 16
  %4 = load ptr, ptr %3, align 8, !tbaa !6
  %5 = tail call i64 @gtk_grid_get_type() #11
  %6 = tail call ptr @g_type_check_instance_cast(ptr noundef %4, i64 noundef %5) #10
  %7 = tail call ptr @gtk_grid_get_child_at(ptr noundef %6, i32 noundef 1, i32 noundef 10) #10
  %8 = tail call i64 @gtk_combo_box_get_type() #11
  %9 = tail call ptr @g_type_check_instance_cast(ptr noundef %7, i64 noundef %8) #10
  tail call void @gtk_combo_box_set_active(ptr noundef %9, i32 noundef -1) #10
  %10 = load ptr, ptr %3, align 8, !tbaa !6
  %11 = tail call ptr @g_type_check_instance_cast(ptr noundef %10, i64 noundef %5) #10
  %12 = tail call ptr @gtk_grid_get_child_at(ptr noundef %11, i32 noundef 1, i32 noundef 11) #10
  %13 = tail call i64 @gtk_entry_get_type() #11
  %14 = tail call ptr @g_type_check_instance_cast(ptr noundef %12, i64 noundef %13) #10
  %15 = tail call ptr @gtk_entry_get_text(ptr noundef %14) #10
  tail call void @dt_conf_set_string(ptr noundef nonnull @.str.12, ptr noundef %15) #10
  ret void
}